target datalayout = "e-m:e-p270:32:32-p271:32:32-p272:64:64-i64:64-i128:128-f80:128-n8:16:32:64-S128"
target triple = "x86_64-pc-linux-gnu"

%"class.std::basic_ios" = type { %"class.std::ios_base", ptr, i8, i8, ptr, ptr, ptr, ptr }
%"class.std::ios_base" = type { ptr, i64, i64, i32, i32, i32, ptr, %"struct.std::ios_base::_Words", [8 x %"struct.std::ios_base::_Words"], i32, ptr, %"class.std::locale" }
%"struct.std::ios_base::_Words" = type { ptr, i64 }
%"class.std::locale" = type { ptr }
%"class.std::__cxx11::basic_string" = type { %"struct.std::__cxx11::basic_string<char>::_Alloc_hider", i64, %union.anon }
%"struct.std::__cxx11::basic_string<char>::_Alloc_hider" = type { ptr }
%union.anon = type { i64, [8 x i8] }
%"class.std::__cxx11::basic_stringbuf" = type { %"class.std::basic_streambuf", i32, %"class.std::__cxx11::basic_string" }
%"class.std::basic_streambuf" = type { ptr, ptr, ptr, ptr, ptr, ptr, ptr, %"class.std::locale" }
%"class.std::basic_ostream.base" = type { ptr }
%"class.std::__cxx11::basic_ostringstream" = type { %"class.std::basic_ostream.base", %"class.std::__cxx11::basic_stringbuf", %"class.std::basic_ios" }

; Function Attrs: mustprogress nounwind uwtable
define linkonce_odr noundef i32 @_ZStorSt13_Ios_FmtflagsS_(i32 noundef %0, i32 noundef %1) #5 comdat {
  %3 = alloca i32, align 4
  %4 = alloca i32, align 4
  store i32 %0, ptr %3, align 4
  store i32 %1, ptr %4, align 4
  %5 = load i32, ptr %3, align 4
  %6 = load i32, ptr %4, align 4
  %7 = or i32 %5, %6
  ret i32 %7
}

; Function Attrs: mustprogress uwtable
define linkonce_odr noundef nonnull align 4 dereferenceable(4) ptr @_ZStoRRSt13_Ios_FmtflagsS_(ptr noundef nonnull align 4 dereferenceable(4) %0, i32 noundef %1) #4 comdat {
  %3 = alloca ptr, align 8
  %4 = alloca i32, align 4
  store ptr %0, ptr %3, align 8
  store i32 %1, ptr %4, align 4
  %5 = load ptr, ptr %3, align 8
  %6 = load i32, ptr %5, align 4
  %7 = load i32, ptr %4, align 4
  %8 = call noundef i32 @_ZStorSt13_Ios_FmtflagsS_(i32 noundef %6, i32 noundef %7)
  %9 = load ptr, ptr %3, align 8
  store i32 %8, ptr %9, align 4
  ret ptr %9
}

; Function Attrs: mustprogress nounwind uwtable
define linkonce_odr noundef i32 @_ZStanSt13_Ios_FmtflagsS_(i32 noundef %0, i32 noundef %1) #5 comdat {
  %3 = alloca i32, align 4
  %4 = alloca i32, align 4
  store i32 %0, ptr %3, align 4
  store i32 %1, ptr %4, align 4
  %5 = load i32, ptr %3, align 4
  %6 = load i32, ptr %4, align 4
  %7 = and i32 %5, %6
  ret i32 %7
}

; Function Attrs: mustprogress uwtable
define linkonce_odr noundef nonnull align 4 dereferenceable(4) ptr @_ZStaNRSt13_Ios_FmtflagsS_(ptr noundef nonnull align 4 dereferenceable(4) %0, i32 noundef %1) #4 comdat {
  %3 = alloca ptr, align 8
  %4 = alloca i32, align 4
  store ptr %0, ptr %3, align 8
  store i32 %1, ptr %4, align 4
  %5 = load ptr, ptr %3, align 8
  %6 = load i32, ptr %5, align 4
  %7 = load i32, ptr %4, align 4
  %8 = call noundef i32 @_ZStanSt13_Ios_FmtflagsS_(i32 noundef %6, i32 noundef %7)
  %9 = load ptr, ptr %3, align 8
  store i32 %8, ptr %9, align 4
  ret ptr %9
}

; Function Attrs: mustprogress nounwind uwtable
define linkonce_odr noundef i32 @_ZStcoSt13_Ios_Fmtflags(i32 noundef %0) #5 comdat {
  %2 = alloca i32, align 4
  store i32 %0, ptr %2, align 4
  %3 = load i32, ptr %2, align 4
  %4 = xor i32 %3, -1
  ret i32 %4
}

; Function Attrs: mustprogress nounwind uwtable
define linkonce_odr noundef i64 @_ZNSt8ios_base9precisionEl(ptr noundef nonnull align 8 dereferenceable(216) %0, i64 noundef %1) #5 comdat align 2 {
  %3 = alloca ptr, align 8
  %4 = alloca i64, align 8
  %5 = alloca i64, align 8
  store ptr %0, ptr %3, align 8
  store i64 %1, ptr %4, align 8
  %6 = load ptr, ptr %3, align 8
  %7 = getelementptr inbounds %"class.std::ios_base", ptr %6, i32 0, i32 1
  %8 = load i64, ptr %7, align 8
  store i64 %8, ptr %5, align 8
  %9 = load i64, ptr %4, align 8
  %10 = getelementptr inbounds %"class.std::ios_base", ptr %6, i32 0, i32 1
  store i64 %9, ptr %10, align 8
  %11 = load i64, ptr %5, align 8
  ret i64 %11
}

; Function Attrs: mustprogress uwtable
define linkonce_odr noundef i32 @_ZNSt8ios_base4setfESt13_Ios_FmtflagsS0_(ptr noundef nonnull align 8 dereferenceable(216) %0, i32 noundef %1, i32 noundef %2) #4 comdat align 2 {
  %4 = alloca ptr, align 8
  %5 = alloca i32, align 4
  %6 = alloca i32, align 4
  %7 = alloca i32, align 4
  store ptr %0, ptr %4, align 8
  store i32 %1, ptr %5, align 4
  store i32 %2, ptr %6, align 4
  %8 = load ptr, ptr %4, align 8
  %9 = getelementptr inbounds %"class.std::ios_base", ptr %8, i32 0, i32 3
  %10 = load i32, ptr %9, align 8
  store i32 %10, ptr %7, align 4
  %11 = load i32, ptr %6, align 4
  %12 = call noundef i32 @_ZStcoSt13_Ios_Fmtflags(i32 noundef %11)
  %13 = getelementptr inbounds %"class.std::ios_base", ptr %8, i32 0, i32 3
  %14 = call noundef nonnull align 4 dereferenceable(4) ptr @_ZStaNRSt13_Ios_FmtflagsS_(ptr noundef nonnull align 4 dereferenceable(4) %13, i32 noundef %12)
  %15 = load i32, ptr %5, align 4
  %16 = load i32, ptr %6, align 4
  %17 = call noundef i32 @_ZStanSt13_Ios_FmtflagsS_(i32 noundef %15, i32 noundef %16)
  %18 = getelementptr inbounds %"class.std::ios_base", ptr %8, i32 0, i32 3
  %19 = call noundef nonnull align 4 dereferenceable(4) ptr @_ZStoRRSt13_Ios_FmtflagsS_(ptr noundef nonnull align 4 dereferenceable(4) %18, i32 noundef %17)
  %20 = load i32, ptr %7, align 4
  ret i32 %20
}

; Function Attrs: mustprogress nounwind uwtable
define linkonce_odr noundef i64 @_ZNSt8ios_base5widthEl(ptr noundef nonnull align 8 dereferenceable(216) %0, i64 noundef %1) #5 comdat align 2 {
  %3 = alloca ptr, align 8
  %4 = alloca i64, align 8
  %5 = alloca i64, align 8
  store ptr %0, ptr %3, align 8
  store i64 %1, ptr %4, align 8
  %6 = load ptr, ptr %3, align 8
  %7 = getelementptr inbounds %"class.std::ios_base", ptr %6, i32 0, i32 2
  %8 = load i64, ptr %7, align 8
  store i64 %8, ptr %5, align 8
  %9 = load i64, ptr %4, align 8
  %10 = getelementptr inbounds %"class.std::ios_base", ptr %6, i32 0, i32 2
  store i64 %9, ptr %10, align 8
  %11 = load i64, ptr %5, align 8
  ret i64 %11
}

; Function Attrs: mustprogress uwtable
define linkonce_odr void @_Z7_to_strIxENSt7__cxx1112basic_stringIcSt11char_traitsIcESaIcEEERKT_mm(ptr dead_on_unwind noalias writable sret(%"class.std::__cxx11::basic_string") align 8 %0, ptr noundef nonnull align 8 dereferenceable(8) %1, i64 noundef %2, i64 noundef %3) #4 comdat personality ptr @__gxx_personality_v0 {
  %5 = alloca ptr, align 8
  %6 = alloca ptr, align 8
  %7 = alloca i64, align 8
  %8 = alloca i64, align 8
  %9 = alloca %"class.std::__cxx11::basic_ostringstream", align 8
  %10 = alloca ptr, align 8
  %11 = alloca i32, align 4
  store ptr %0, ptr %5, align 8
  store ptr %1, ptr %6, align 8
  store i64 %2, ptr %7, align 8
  store i64 %3, ptr %8, align 8
  call void @_ZNSt7__cxx1119basic_ostringstreamIcSt11char_traitsIcESaIcEEC1Ev(ptr noundef nonnull align 8 dereferenceable(112) %9)
  %12 = load i64, ptr %7, align 8
  %13 = icmp ne i64 %12, 0
  br i1 %13, label %14, label %21

14:                                               ; preds = %4
  %15 = load ptr, ptr %9, align 8
  %16 = getelementptr i8, ptr %15, i64 -24
  %17 = load i64, ptr %16, align 8
  %18 = getelementptr inbounds i8, ptr %9, i64 %17
  %19 = load i64, ptr %7, align 8
  %20 = call noundef i64 @_ZNSt8ios_base5widthEl(ptr noundef nonnull align 8 dereferenceable(216) %18, i64 noundef %19)
  br label %21

21:                                               ; preds = %14, %4
  %22 = load i64, ptr %8, align 8
  %23 = icmp ne i64 %22, 0
  br i1 %23, label %24, label %41

24:                                               ; preds = %21
  %25 = load ptr, ptr %9, align 8
  %26 = getelementptr i8, ptr %25, i64 -24
  %27 = load i64, ptr %26, align 8
  %28 = getelementptr inbounds i8, ptr %9, i64 %27
  %29 = invoke noundef i32 @_ZNSt8ios_base4setfESt13_Ios_FmtflagsS0_(ptr noundef nonnull align 8 dereferenceable(216) %28, i32 noundef 256, i32 noundef 260)
          to label %30 unwind label %37

30:                                               ; preds = %24
  %31 = load ptr, ptr %9, align 8
  %32 = getelementptr i8, ptr %31, i64 -24
  %33 = load i64, ptr %32, align 8
  %34 = getelementptr inbounds i8, ptr %9, i64 %33
  %35 = load i64, ptr %8, align 8
  %36 = call noundef i64 @_ZNSt8ios_base9precisionEl(ptr noundef nonnull align 8 dereferenceable(216) %34, i64 noundef %35)
  br label %41

37:                                               ; preds = %45, %41, %24
  %38 = landingpad { ptr, i32 }
          cleanup
  %39 = extractvalue { ptr, i32 } %38, 0
  store ptr %39, ptr %10, align 8
  %40 = extractvalue { ptr, i32 } %38, 1
  store i32 %40, ptr %11, align 4
  call void @_ZNSt7__cxx1119basic_ostringstreamIcSt11char_traitsIcESaIcEED1Ev(ptr noundef nonnull align 8 dereferenceable(112) %9) #3
  br label %47

41:                                               ; preds = %30, %21
  %42 = load ptr, ptr %6, align 8
  %43 = load i64, ptr %42, align 8
  %44 = invoke noundef nonnull align 8 dereferenceable(8) ptr @_ZNSolsEx(ptr noundef nonnull align 8 dereferenceable(8) %9, i64 noundef %43)
          to label %45 unwind label %37

45:                                               ; preds = %41
  invoke void @_ZNKSt7__cxx1119basic_ostringstreamIcSt11char_traitsIcESaIcEE3strEv(ptr dead_on_unwind writable sret(%"class.std::__cxx11::basic_string") align 8 %0, ptr noundef nonnull align 8 dereferenceable(112) %9)
          to label %46 unwind label %37

46:                                               ; preds = %45
  call void @_ZNSt7__cxx1119basic_ostringstreamIcSt11char_traitsIcESaIcEED1Ev(ptr noundef nonnull align 8 dereferenceable(112) %9) #3
  ret void

47:                                               ; preds = %37
  %48 = load ptr, ptr %10, align 8
  %49 = load i32, ptr %11, align 4
  %50 = insertvalue { ptr, i32 } poison, ptr %48, 0
  %51 = insertvalue { ptr, i32 } %50, i32 %49, 1
  resume { ptr, i32 } %51
}

; Function Attrs: mustprogress uwtable
define void @_ZN12colvarmodule6to_strB5cxx11ERKxmm(ptr dead_on_unwind noalias writable sret(%"class.std::__cxx11::basic_string") align 8 %0, ptr noundef nonnull align 8 dereferenceable(8) %1, i64 noundef %2, i64 noundef %3) #4 align 2 {
  %5 = alloca ptr, align 8
  %6 = alloca ptr, align 8
  %7 = alloca i64, align 8
  %8 = alloca i64, align 8
  store ptr %0, ptr %5, align 8
  store ptr %1, ptr %6, align 8
  store i64 %2, ptr %7, align 8
  store i64 %3, ptr %8, align 8
  %9 = load ptr, ptr %6, align 8
  %10 = load i64, ptr %7, align 8
  %11 = load i64, ptr %8, align 8
  call void @_Z7_to_strIxENSt7__cxx1112basic_stringIcSt11char_traitsIcESaIcEEERKT_mm(ptr dead_on_unwind writable sret(%"class.std::__cxx11::basic_string") align 8 %0, ptr noundef nonnull align 8 dereferenceable(8) %9, i64 noundef %10, i64 noundef %11)
  ret void
}